target datalayout = "e-m:e-p270:32:32-p271:32:32-p272:64:64-i64:64-i128:128-f80:128-n8:16:32:64-S128"
target triple = "x86_64-pc-linux-gnu"

%struct.SDL_MouseInstance = type { i32, ptr }

@SDL_mice = internal global ptr null, align 8
@SDL_mouse_count = internal global i32 0, align 4
@.str.16 = private unnamed_addr constant [19 x i8] c"Mouse %u not found\00", align 1

; Function Attrs: nounwind uwtable
define internal i32 @SDL_GetMouseIndex(i32 noundef %0) #0 {
  %2 = alloca i32, align 4
  %3 = alloca i32, align 4
  %4 = alloca i32, align 4
  %5 = alloca i32, align 4
  store i32 %0, ptr %3, align 4
  call void @llvm.lifetime.start.p0(i64 4, ptr %4) #7
  store i32 0, ptr %4, align 4
  br label %6

6:                                                ; preds = %23, %1
  %7 = load i32, ptr %4, align 4
  %8 = load i32, ptr @SDL_mouse_count, align 4
  %9 = icmp slt i32 %7, %8
  br i1 %9, label %11, label %10

10:                                               ; preds = %6
  store i32 2, ptr %5, align 4
  br label %26

11:                                               ; preds = %6
  %12 = load i32, ptr %3, align 4
  %13 = load ptr, ptr @SDL_mice, align 8
  %14 = load i32, ptr %4, align 4
  %15 = sext i32 %14 to i64
  %16 = getelementptr inbounds %struct.SDL_MouseInstance, ptr %13, i64 %15
  %17 = getelementptr inbounds nuw %struct.SDL_MouseInstance, ptr %16, i32 0, i32 0
  %18 = load i32, ptr %17, align 8
  %19 = icmp eq i32 %12, %18
  br i1 %19, label %20, label %22

20:                                               ; preds = %11
  %21 = load i32, ptr %4, align 4
  store i32 %21, ptr %2, align 4
  store i32 1, ptr %5, align 4
  br label %26

22:                                               ; preds = %11
  br label %23

23:                                               ; preds = %22
  %24 = load i32, ptr %4, align 4
  %25 = add nsw i32 %24, 1
  store i32 %25, ptr %4, align 4
  br label %6, !llvm.loop !7

26:                                               ; preds = %20, %10
  call void @llvm.lifetime.end.p0(i64 4, ptr %4) #7
  %27 = load i32, ptr %5, align 4
  switch i32 %27, label %31 [
    i32 2, label %28
    i32 1, label %29
  ]

28:                                               ; preds = %26
  store i32 -1, ptr %2, align 4
  br label %29

29:                                               ; preds = %28, %26
  %30 = load i32, ptr %2, align 4
  ret i32 %30

31:                                               ; preds = %26
  unreachable
}

; Function Attrs: nounwind uwtable
define hidden ptr @SDL_GetMouseNameForID_REAL(i32 noundef %0) #0 {
  %2 = alloca ptr, align 8
  %3 = alloca i32, align 4
  %4 = alloca i32, align 4
  %5 = alloca i32, align 4
  store i32 %0, ptr %3, align 4
  call void @llvm.lifetime.start.p0(i64 4, ptr %4) #7
  %6 = load i32, ptr %3, align 4
  %7 = call i32 @SDL_GetMouseIndex(i32 noundef %6)
  store i32 %7, ptr %4, align 4
  %8 = load i32, ptr %4, align 4
  %9 = icmp slt i32 %8, 0
  br i1 %9, label %10, label %13

10:                                               ; preds = %1
  %11 = load i32, ptr %3, align 4
  %12 = call zeroext i1 (ptr, ...) @SDL_SetError_REAL(ptr noundef @.str.16, i32 noundef %11)
  store ptr null, ptr %2, align 8
  store i32 1, ptr %5, align 4
  br label %21

13:                                               ; preds = %1
  %14 = load ptr, ptr @SDL_mice, align 8
  %15 = load i32, ptr %4, align 4
  %16 = sext i32 %15 to i64
  %17 = getelementptr inbounds %struct.SDL_MouseInstance, ptr %14, i64 %16
  %18 = getelementptr inbounds nuw %struct.SDL_MouseInstance, ptr %17, i32 0, i32 1
  %19 = load ptr, ptr %18, align 8
  %20 = call ptr @SDL_GetPersistentString(ptr noundef %19)
  store ptr %20, ptr %2, align 8
  store i32 1, ptr %5, align 4
  br label %21

21:                                               ; preds = %13, %10
  call void @llvm.lifetime.end.p0(i64 4, ptr %4) #7
  %22 = load ptr, ptr %2, align 8
  ret ptr %22
}